target datalayout = "e-m:e-p270:32:32-p271:32:32-p272:64:64-i64:64-i128:128-f80:128-n8:16:32:64-S128"
target triple = "x86_64-pc-linux-gnu"

%struct.strbuf = type { i64, i64, ptr }
%struct.repository = type { ptr, ptr, ptr, ptr, ptr, %struct.strmap, %struct.strmap, %struct.repo_path_cache, ptr, ptr, ptr, ptr, %struct.repo_settings, ptr, ptr, ptr, ptr, ptr, ptr, i32, i32, i32, ptr, ptr, i32, i32, i8 }
%struct.strmap = type { %struct.hashmap, ptr, i8 }
%struct.hashmap = type { ptr, ptr, ptr, i32, i32, i32, i32, i8 }
%struct.repo_path_cache = type { ptr, ptr, ptr, ptr, ptr, ptr, ptr }
%struct.repo_settings = type { i32, i32, i32, i32, i32, i32, i32, i32, i32, i32, i32, i32, ptr, i32, i32, i32, i32, i32, i32, i32, i64, i64, i64 }
%struct.git_hash_algo = type { ptr, i32, i64, i64, i64, ptr, ptr, ptr, ptr, ptr, ptr, ptr, ptr, ptr }
%struct.stat = type { i64, i64, i64, i32, i32, i32, i32, i64, i64, i64, i64, %struct.timespec, %struct.timespec, %struct.timespec, [3 x i64] }
%struct.timespec = type { i64, i64 }
%union.git_hash_ctx = type { %struct.SHA1_CTX }
%struct.SHA1_CTX = type { i64, [5 x i32], [64 x i8], i32, i32, i32, i32, i32, ptr, [5 x i32], [5 x i32], [80 x i32], [80 x i32], [80 x [5 x i32]] }

@the_repository = external global ptr, align 8
@__const.index_path.sb = private unnamed_addr constant %struct.strbuf { i64 0, i64 0, ptr @strbuf_slopbuf }, align 8
@.str.38 = private unnamed_addr constant [11 x i8] c"open(\22%s\22)\00", align 1
@.str.39 = private unnamed_addr constant [35 x i8] c"%s: failed to insert into database\00", align 1
@.str.40 = private unnamed_addr constant [15 x i8] c"readlink(\22%s\22)\00", align 1
@.str.41 = private unnamed_addr constant [5 x i8] c"HEAD\00", align 1
@.str.42 = private unnamed_addr constant [26 x i8] c"%s: unsupported file type\00", align 1
@.str.60 = private unnamed_addr constant [1 x i8] zeroinitializer, align 1
@git_gettext_enabled = external global i32, align 4
@.str.76 = private unnamed_addr constant [7 x i8] c"%s %lu\00", align 1

; Function Attrs: nounwind uwtable
define internal void @hash_object_body(ptr noundef %0, ptr noundef %1, ptr noundef %2, i64 noundef %3, ptr noundef %4, ptr noundef %5, ptr noundef %6) #0 {
  %8 = alloca ptr, align 8
  %9 = alloca ptr, align 8
  %10 = alloca ptr, align 8
  %11 = alloca i64, align 8
  %12 = alloca ptr, align 8
  %13 = alloca ptr, align 8
  %14 = alloca ptr, align 8
  store ptr %0, ptr %8, align 8, !tbaa !41
  store ptr %1, ptr %9, align 8, !tbaa !4
  store ptr %2, ptr %10, align 8, !tbaa !9
  store i64 %3, ptr %11, align 8, !tbaa !10
  store ptr %4, ptr %12, align 8, !tbaa !14
  store ptr %5, ptr %13, align 8, !tbaa !12
  store ptr %6, ptr %14, align 8, !tbaa !171
  %15 = load ptr, ptr %8, align 8, !tbaa !41
  %16 = getelementptr inbounds nuw %struct.git_hash_algo, ptr %15, i32 0, i32 5
  %17 = load ptr, ptr %16, align 8, !tbaa !108
  %18 = load ptr, ptr %9, align 8, !tbaa !4
  call void %17(ptr noundef %18)
  %19 = load ptr, ptr %8, align 8, !tbaa !41
  %20 = getelementptr inbounds nuw %struct.git_hash_algo, ptr %19, i32 0, i32 7
  %21 = load ptr, ptr %20, align 8, !tbaa !109
  %22 = load ptr, ptr %9, align 8, !tbaa !4
  %23 = load ptr, ptr %13, align 8, !tbaa !12
  %24 = load ptr, ptr %14, align 8, !tbaa !171
  %25 = load i32, ptr %24, align 4, !tbaa !43
  %26 = sext i32 %25 to i64
  call void %21(ptr noundef %22, ptr noundef %23, i64 noundef %26)
  %27 = load ptr, ptr %8, align 8, !tbaa !41
  %28 = getelementptr inbounds nuw %struct.git_hash_algo, ptr %27, i32 0, i32 7
  %29 = load ptr, ptr %28, align 8, !tbaa !109
  %30 = load ptr, ptr %9, align 8, !tbaa !4
  %31 = load ptr, ptr %10, align 8, !tbaa !9
  %32 = load i64, ptr %11, align 8, !tbaa !10
  call void %29(ptr noundef %30, ptr noundef %31, i64 noundef %32)
  %33 = load ptr, ptr %8, align 8, !tbaa !41
  %34 = getelementptr inbounds nuw %struct.git_hash_algo, ptr %33, i32 0, i32 9
  %35 = load ptr, ptr %34, align 8, !tbaa !110
  %36 = load ptr, ptr %12, align 8, !tbaa !14
  %37 = load ptr, ptr %9, align 8, !tbaa !4
  call void %35(ptr noundef %36, ptr noundef %37)
  ret void
}

; Function Attrs: nounwind uwtable
define internal i32 @format_object_header_literally(ptr noundef %0, i64 noundef %1, ptr noundef %2, i64 noundef %3) #0 {
  %5 = alloca ptr, align 8
  %6 = alloca i64, align 8
  %7 = alloca ptr, align 8
  %8 = alloca i64, align 8
  store ptr %0, ptr %5, align 8, !tbaa !12
  store i64 %1, ptr %6, align 8, !tbaa !10
  store ptr %2, ptr %7, align 8, !tbaa !12
  store i64 %3, ptr %8, align 8, !tbaa !10
  %9 = load ptr, ptr %5, align 8, !tbaa !12
  %10 = load i64, ptr %6, align 8, !tbaa !10
  %11 = load ptr, ptr %7, align 8, !tbaa !12
  %12 = load i64, ptr %8, align 8, !tbaa !10
  %13 = call i32 (ptr, i64, ptr, ...) @xsnprintf(ptr noundef %9, i64 noundef %10, ptr noundef @.str.76, ptr noundef %11, i64 noundef %12)
  %14 = add nsw i32 %13, 1
  ret i32 %14
}

; Function Attrs: nounwind uwtable
define internal void @write_object_file_prepare_literally(ptr noundef %0, ptr noundef %1, i64 noundef %2, ptr noundef %3, ptr noundef %4, ptr noundef %5, ptr noundef %6) #0 {
  %8 = alloca ptr, align 8
  %9 = alloca ptr, align 8
  %10 = alloca i64, align 8
  %11 = alloca ptr, align 8
  %12 = alloca ptr, align 8
  %13 = alloca ptr, align 8
  %14 = alloca ptr, align 8
  %15 = alloca %union.git_hash_ctx, align 8
  store ptr %0, ptr %8, align 8, !tbaa !41
  store ptr %1, ptr %9, align 8, !tbaa !9
  store i64 %2, ptr %10, align 8, !tbaa !10
  store ptr %3, ptr %11, align 8, !tbaa !12
  store ptr %4, ptr %12, align 8, !tbaa !14
  store ptr %5, ptr %13, align 8, !tbaa !12
  store ptr %6, ptr %14, align 8, !tbaa !171
  call void @llvm.lifetime.start.p0(i64 2400, ptr %15) #14
  %16 = load ptr, ptr %13, align 8, !tbaa !12
  %17 = load ptr, ptr %14, align 8, !tbaa !171
  %18 = load i32, ptr %17, align 4, !tbaa !43
  %19 = sext i32 %18 to i64
  %20 = load ptr, ptr %11, align 8, !tbaa !12
  %21 = load i64, ptr %10, align 8, !tbaa !10
  %22 = call i32 @format_object_header_literally(ptr noundef %16, i64 noundef %19, ptr noundef %20, i64 noundef %21)
  %23 = load ptr, ptr %14, align 8, !tbaa !171
  store i32 %22, ptr %23, align 4, !tbaa !43
  %24 = load ptr, ptr %8, align 8, !tbaa !41
  %25 = load ptr, ptr %9, align 8, !tbaa !9
  %26 = load i64, ptr %10, align 8, !tbaa !10
  %27 = load ptr, ptr %12, align 8, !tbaa !14
  %28 = load ptr, ptr %13, align 8, !tbaa !12
  %29 = load ptr, ptr %14, align 8, !tbaa !171
  call void @hash_object_body(ptr noundef %24, ptr noundef %15, ptr noundef %25, i64 noundef %26, ptr noundef %27, ptr noundef %28, ptr noundef %29)
  call void @llvm.lifetime.end.p0(i64 2400, ptr %15) #14
  ret void
}

; Function Attrs: nounwind uwtable
define internal void @hash_object_file_literally(ptr noundef %0, ptr noundef %1, i64 noundef %2, ptr noundef %3, ptr noundef %4) #0 {
  %6 = alloca ptr, align 8
  %7 = alloca ptr, align 8
  %8 = alloca i64, align 8
  %9 = alloca ptr, align 8
  %10 = alloca ptr, align 8
  %11 = alloca [32 x i8], align 16
  %12 = alloca i32, align 4
  store ptr %0, ptr %6, align 8, !tbaa !41
  store ptr %1, ptr %7, align 8, !tbaa !9
  store i64 %2, ptr %8, align 8, !tbaa !10
  store ptr %3, ptr %9, align 8, !tbaa !12
  store ptr %4, ptr %10, align 8, !tbaa !14
  call void @llvm.lifetime.start.p0(i64 32, ptr %11) #14
  call void @llvm.lifetime.start.p0(i64 4, ptr %12) #14
  store i32 32, ptr %12, align 4, !tbaa !43
  %13 = load ptr, ptr %6, align 8, !tbaa !41
  %14 = load ptr, ptr %7, align 8, !tbaa !9
  %15 = load i64, ptr %8, align 8, !tbaa !10
  %16 = load ptr, ptr %9, align 8, !tbaa !12
  %17 = load ptr, ptr %10, align 8, !tbaa !14
  %18 = getelementptr inbounds [32 x i8], ptr %11, i64 0, i64 0
  call void @write_object_file_prepare_literally(ptr noundef %13, ptr noundef %14, i64 noundef %15, ptr noundef %16, ptr noundef %17, ptr noundef %18, ptr noundef %12)
  call void @llvm.lifetime.end.p0(i64 4, ptr %12) #14
  call void @llvm.lifetime.end.p0(i64 32, ptr %11) #14
  ret void
}

; Function Attrs: inlinehint nounwind uwtable
define internal i32 @write_object_file(ptr noundef %0, i64 noundef %1, i32 noundef %2, ptr noundef %3) #7 {
  %5 = alloca ptr, align 8
  %6 = alloca i64, align 8
  %7 = alloca i32, align 4
  %8 = alloca ptr, align 8
  store ptr %0, ptr %5, align 8, !tbaa !9
  store i64 %1, ptr %6, align 8, !tbaa !10
  store i32 %2, ptr %7, align 4, !tbaa !43
  store ptr %3, ptr %8, align 8, !tbaa !14
  %9 = load ptr, ptr %5, align 8, !tbaa !9
  %10 = load i64, ptr %6, align 8, !tbaa !10
  %11 = load i32, ptr %7, align 4, !tbaa !43
  %12 = load ptr, ptr %8, align 8, !tbaa !14
  %13 = call i32 @write_object_file_flags(ptr noundef %9, i64 noundef %10, i32 noundef %11, ptr noundef %12, ptr noundef null, i32 noundef 0)
  ret i32 %13
}

; Function Attrs: nounwind uwtable
define dso_local void @hash_object_file(ptr noundef %0, ptr noundef %1, i64 noundef %2, i32 noundef %3, ptr noundef %4) #0 {
  %6 = alloca ptr, align 8
  %7 = alloca ptr, align 8
  %8 = alloca i64, align 8
  %9 = alloca i32, align 4
  %10 = alloca ptr, align 8
  store ptr %0, ptr %6, align 8, !tbaa !41
  store ptr %1, ptr %7, align 8, !tbaa !9
  store i64 %2, ptr %8, align 8, !tbaa !10
  store i32 %3, ptr %9, align 4, !tbaa !43
  store ptr %4, ptr %10, align 8, !tbaa !14
  %11 = load ptr, ptr %6, align 8, !tbaa !41
  %12 = load ptr, ptr %7, align 8, !tbaa !9
  %13 = load i64, ptr %8, align 8, !tbaa !10
  %14 = load i32, ptr %9, align 4, !tbaa !43
  %15 = call ptr @type_name(i32 noundef %14)
  %16 = load ptr, ptr %10, align 8, !tbaa !14
  call void @hash_object_file_literally(ptr noundef %11, ptr noundef %12, i64 noundef %13, ptr noundef %15, ptr noundef %16)
  ret void
}

; Function Attrs: inlinehint nounwind uwtable
define internal ptr @_(ptr noundef %0) #7 {
  %2 = alloca ptr, align 8
  %3 = alloca ptr, align 8
  store ptr %0, ptr %3, align 8, !tbaa !12
  %4 = load ptr, ptr %3, align 8, !tbaa !12
  %5 = load i8, ptr %4, align 1, !tbaa !58
  %6 = icmp ne i8 %5, 0
  br i1 %6, label %8, label %7

7:                                                ; preds = %1
  store ptr @.str.60, ptr %2, align 8
  br label %16

8:                                                ; preds = %1
  %9 = load i32, ptr @git_gettext_enabled, align 4, !tbaa !43
  %10 = icmp ne i32 %9, 0
  br i1 %10, label %13, label %11

11:                                               ; preds = %8
  %12 = load ptr, ptr %3, align 8, !tbaa !12
  store ptr %12, ptr %2, align 8
  br label %16

13:                                               ; preds = %8
  %14 = load ptr, ptr %3, align 8, !tbaa !12
  %15 = call ptr @dcgettext(ptr noundef null, ptr noundef %14, i32 noundef 5) #14
  store ptr %15, ptr %2, align 8
  br label %16

16:                                               ; preds = %13, %11, %7
  %17 = load ptr, ptr %2, align 8
  ret ptr %17
}

; Function Attrs: inlinehint nounwind uwtable
define internal i32 @const_error() #7 {
  ret i32 -1
}

; Function Attrs: nounwind uwtable
define dso_local i32 @index_path(ptr noundef %0, ptr noundef %1, ptr noundef %2, ptr noundef %3, i32 noundef %4) #0 {
  %6 = alloca i32, align 4
  %7 = alloca ptr, align 8
  %8 = alloca ptr, align 8
  %9 = alloca ptr, align 8
  %10 = alloca ptr, align 8
  %11 = alloca i32, align 4
  %12 = alloca i32, align 4
  %13 = alloca %struct.strbuf, align 8
  %14 = alloca i32, align 4
  %15 = alloca i32, align 4
  store ptr %0, ptr %7, align 8, !tbaa !177
  store ptr %1, ptr %8, align 8, !tbaa !14
  store ptr %2, ptr %9, align 8, !tbaa !12
  store ptr %3, ptr %10, align 8, !tbaa !178
  store i32 %4, ptr %11, align 4, !tbaa !43
  call void @llvm.lifetime.start.p0(i64 4, ptr %12) #14
  call void @llvm.lifetime.start.p0(i64 24, ptr %13) #14
  call void @llvm.memcpy.p0.p0.i64(ptr align 8 %13, ptr align 8 @__const.index_path.sb, i64 24, i1 false)
  call void @llvm.lifetime.start.p0(i64 4, ptr %14) #14
  store i32 0, ptr %14, align 4, !tbaa !43
  %16 = load ptr, ptr %10, align 8, !tbaa !178
  %17 = getelementptr inbounds nuw %struct.stat, ptr %16, i32 0, i32 3
  %18 = load i32, ptr %17, align 8, !tbaa !52
  %19 = and i32 %18, 61440
  switch i32 %19, label %88 [
    i32 32768, label %20
    i32 40960, label %44
    i32 16384, label %83
  ]

20:                                               ; preds = %5
  %21 = load ptr, ptr %9, align 8, !tbaa !12
  %22 = call i32 (ptr, i32, ...) @open64(ptr noundef %21, i32 noundef 0)
  store i32 %22, ptr %12, align 4, !tbaa !43
  %23 = load i32, ptr %12, align 4, !tbaa !43
  %24 = icmp slt i32 %23, 0
  br i1 %24, label %25, label %29

25:                                               ; preds = %20
  %26 = load ptr, ptr %9, align 8, !tbaa !12
  %27 = call i32 (ptr, ...) @error_errno(ptr noundef @.str.38, ptr noundef %26)
  %28 = call i32 @const_error()
  store i32 %28, ptr %6, align 4
  store i32 1, ptr %15, align 4
  br label %95

29:                                               ; preds = %20
  %30 = load ptr, ptr %7, align 8, !tbaa !177
  %31 = load ptr, ptr %8, align 8, !tbaa !14
  %32 = load i32, ptr %12, align 4, !tbaa !43
  %33 = load ptr, ptr %10, align 8, !tbaa !178
  %34 = load ptr, ptr %9, align 8, !tbaa !12
  %35 = load i32, ptr %11, align 4, !tbaa !43
  %36 = call i32 @index_fd(ptr noundef %30, ptr noundef %31, i32 noundef %32, ptr noundef %33, i32 noundef 3, ptr noundef %34, i32 noundef %35)
  %37 = icmp slt i32 %36, 0
  br i1 %37, label %38, label %43

38:                                               ; preds = %29
  %39 = call ptr @_(ptr noundef @.str.39)
  %40 = load ptr, ptr %9, align 8, !tbaa !12
  %41 = call i32 (ptr, ...) @error(ptr noundef %39, ptr noundef %40)
  %42 = call i32 @const_error()
  store i32 %42, ptr %6, align 4
  store i32 1, ptr %15, align 4
  br label %95

43:                                               ; preds = %29
  br label %93

44:                                               ; preds = %5
  %45 = load ptr, ptr %9, align 8, !tbaa !12
  %46 = load ptr, ptr %10, align 8, !tbaa !178
  %47 = getelementptr inbounds nuw %struct.stat, ptr %46, i32 0, i32 8
  %48 = load i64, ptr %47, align 8, !tbaa !55
  %49 = call i32 @strbuf_readlink(ptr noundef %13, ptr noundef %45, i64 noundef %48)
  %50 = icmp ne i32 %49, 0
  br i1 %50, label %51, label %55

51:                                               ; preds = %44
  %52 = load ptr, ptr %9, align 8, !tbaa !12
  %53 = call i32 (ptr, ...) @error_errno(ptr noundef @.str.40, ptr noundef %52)
  %54 = call i32 @const_error()
  store i32 %54, ptr %6, align 4
  store i32 1, ptr %15, align 4
  br label %95

55:                                               ; preds = %44
  %56 = load i32, ptr %11, align 4, !tbaa !43
  %57 = and i32 %56, 1
  %58 = icmp ne i32 %57, 0
  br i1 %58, label %68, label %59

59:                                               ; preds = %55
  %60 = load ptr, ptr @the_repository, align 8, !tbaa !19
  %61 = getelementptr inbounds nuw %struct.repository, ptr %60, i32 0, i32 17
  %62 = load ptr, ptr %61, align 8, !tbaa !21
  %63 = getelementptr inbounds nuw %struct.strbuf, ptr %13, i32 0, i32 2
  %64 = load ptr, ptr %63, align 8, !tbaa !56
  %65 = getelementptr inbounds nuw %struct.strbuf, ptr %13, i32 0, i32 1
  %66 = load i64, ptr %65, align 8, !tbaa !92
  %67 = load ptr, ptr %8, align 8, !tbaa !14
  call void @hash_object_file(ptr noundef %62, ptr noundef %64, i64 noundef %66, i32 noundef 3, ptr noundef %67)
  br label %82

68:                                               ; preds = %55
  %69 = getelementptr inbounds nuw %struct.strbuf, ptr %13, i32 0, i32 2
  %70 = load ptr, ptr %69, align 8, !tbaa !56
  %71 = getelementptr inbounds nuw %struct.strbuf, ptr %13, i32 0, i32 1
  %72 = load i64, ptr %71, align 8, !tbaa !92
  %73 = load ptr, ptr %8, align 8, !tbaa !14
  %74 = call i32 @write_object_file(ptr noundef %70, i64 noundef %72, i32 noundef 3, ptr noundef %73)
  %75 = icmp ne i32 %74, 0
  br i1 %75, label %76, label %81

76:                                               ; preds = %68
  %77 = call ptr @_(ptr noundef @.str.39)
  %78 = load ptr, ptr %9, align 8, !tbaa !12
  %79 = call i32 (ptr, ...) @error(ptr noundef %77, ptr noundef %78)
  %80 = call i32 @const_error()
  store i32 %80, ptr %14, align 4, !tbaa !43
  br label %81

81:                                               ; preds = %76, %68
  br label %82

82:                                               ; preds = %81, %59
  call void @strbuf_release(ptr noundef %13)
  br label %93

83:                                               ; preds = %5
  %84 = load ptr, ptr @the_repository, align 8, !tbaa !19
  %85 = load ptr, ptr %9, align 8, !tbaa !12
  %86 = load ptr, ptr %8, align 8, !tbaa !14
  %87 = call i32 @repo_resolve_gitlink_ref(ptr noundef %84, ptr noundef %85, ptr noundef @.str.41, ptr noundef %86)
  store i32 %87, ptr %6, align 4
  store i32 1, ptr %15, align 4
  br label %95

88:                                               ; preds = %5
  %89 = call ptr @_(ptr noundef @.str.42)
  %90 = load ptr, ptr %9, align 8, !tbaa !12
  %91 = call i32 (ptr, ...) @error(ptr noundef %89, ptr noundef %90)
  %92 = call i32 @const_error()
  store i32 %92, ptr %6, align 4
  store i32 1, ptr %15, align 4
  br label %95

93:                                               ; preds = %82, %43
  %94 = load i32, ptr %14, align 4, !tbaa !43
  store i32 %94, ptr %6, align 4
  store i32 1, ptr %15, align 4
  br label %95

95:                                               ; preds = %93, %88, %83, %51, %38, %25
  call void @llvm.lifetime.end.p0(i64 4, ptr %14) #14
  call void @llvm.lifetime.end.p0(i64 24, ptr %13) #14
  call void @llvm.lifetime.end.p0(i64 4, ptr %12) #14
  %96 = load i32, ptr %6, align 4
  ret i32 %96
}