; Function Attrs: nounwind uwtable
define dso_local i32 @index_path(ptr noundef %0, ptr noundef %1, ptr noundef %2, ptr noundef readonly captures(none) %3, i32 noundef %4) local_unnamed_addr #1 {
  %6 = alloca %union.git_hash_ctx, align 8
  %7 = alloca [32 x i8], align 16
  %8 = alloca %struct.strbuf, align 8
  call void @llvm.lifetime.start.p0(i64 24, ptr nonnull %8) #27
  call void @llvm.memcpy.p0.p0.i64(ptr noundef nonnull align 8 dereferenceable(24) %8, ptr noundef nonnull align 8 dereferenceable(24) @__const.index_mem.nbuf, i64 24, i1 false)
  %9 = getelementptr inbounds nuw i8, ptr %3, i64 24
  %10 = load i32, ptr %9, align 8, !tbaa !45
  %11 = trunc i32 %10 to i16
  %trunc = and i16 %11, -4096
  switch i16 %trunc, label %67 [
    i16 -32768, label %12
    i16 -24576, label %25
    i16 16384, label %64
  ]

12:                                               ; preds = %5
  %13 = tail call i32 (ptr, i32, ...) @open64(ptr noundef %2, i32 noundef 0) #27
  %14 = icmp slt i32 %13, 0
  br i1 %14, label %15, label %17

15:                                               ; preds = %12
  %16 = tail call i32 (ptr, ...) @error_errno(ptr noundef nonnull @.str.38, ptr noundef %2) #27
  br label %72

17:                                               ; preds = %12
  %18 = tail call i32 @index_fd(ptr noundef %0, ptr noundef %1, i32 noundef %13, ptr noundef nonnull %3, i32 noundef 3, ptr noundef %2, i32 noundef %4)
  %19 = icmp slt i32 %18, 0
  br i1 %19, label %20, label %72

20:                                               ; preds = %17
  %21 = load i32, ptr @git_gettext_enabled, align 4, !tbaa !44
  %.not4.i = icmp eq i32 %21, 0
  br i1 %.not4.i, label %_.exit, label %22

22:                                               ; preds = %20
  %23 = tail call ptr @dcgettext(ptr noundef null, ptr noundef nonnull @.str.39, i32 noundef 5) #27
  br label %_.exit

_.exit:                                           ; preds = %20, %22
  %.0.i = phi ptr [ %23, %22 ], [ @.str.39, %20 ]
  %24 = tail call i32 (ptr, ...) @error(ptr noundef %.0.i, ptr noundef %2) #27
  br label %72

25:                                               ; preds = %5
  %26 = getelementptr inbounds nuw i8, ptr %3, i64 48
  %27 = load i64, ptr %26, align 8, !tbaa !48
  %28 = call i32 @strbuf_readlink(ptr noundef nonnull %8, ptr noundef %2, i64 noundef %27) #27
  %.not = icmp eq i32 %28, 0
  br i1 %.not, label %31, label %29

29:                                               ; preds = %25
  %30 = call i32 (ptr, ...) @error_errno(ptr noundef nonnull @.str.40, ptr noundef %2) #27
  br label %72

31:                                               ; preds = %25
  %32 = and i32 %4, 1
  %.not24 = icmp eq i32 %32, 0
  br i1 %.not24, label %33, label %52

33:                                               ; preds = %31
  %34 = load ptr, ptr @the_repository, align 8, !tbaa !9
  %35 = getelementptr inbounds nuw i8, ptr %34, i64 400
  %36 = load ptr, ptr %35, align 8, !tbaa !12
  %37 = getelementptr inbounds nuw i8, ptr %8, i64 16
  %38 = load ptr, ptr %37, align 8, !tbaa !49
  %39 = getelementptr inbounds nuw i8, ptr %8, i64 8
  %40 = load i64, ptr %39, align 8, !tbaa !53
  %41 = call ptr @type_name(i32 noundef 3) #27
  call void @llvm.lifetime.start.p0(i64 32, ptr nonnull %7) #27
  call void @llvm.lifetime.start.p0(i64 2400, ptr nonnull %6) #27
  %42 = call i32 (ptr, i64, ptr, ...) @xsnprintf(ptr noundef nonnull %7, i64 noundef 32, ptr noundef nonnull @.str.76, ptr noundef %41, i64 noundef %40) #27
  %43 = add nsw i32 %42, 1
  %44 = getelementptr inbounds nuw i8, ptr %36, i64 40
  %45 = load ptr, ptr %44, align 8, !tbaa !100
  call void %45(ptr noundef nonnull %6) #27
  %46 = getelementptr inbounds nuw i8, ptr %36, i64 56
  %47 = load ptr, ptr %46, align 8, !tbaa !101
  %48 = sext i32 %43 to i64
  call void %47(ptr noundef nonnull %6, ptr noundef nonnull %7, i64 noundef %48) #27
  %49 = load ptr, ptr %46, align 8, !tbaa !101
  call void %49(ptr noundef nonnull %6, ptr noundef %38, i64 noundef %40) #27
  %50 = getelementptr inbounds nuw i8, ptr %36, i64 72
  %51 = load ptr, ptr %50, align 8, !tbaa !102
  call void %51(ptr noundef %1, ptr noundef nonnull %6) #27
  call void @llvm.lifetime.end.p0(i64 2400, ptr nonnull %6) #27
  call void @llvm.lifetime.end.p0(i64 32, ptr nonnull %7) #27
  br label %63

52:                                               ; preds = %31
  %53 = getelementptr inbounds nuw i8, ptr %8, i64 16
  %54 = load ptr, ptr %53, align 8, !tbaa !49
  %55 = getelementptr inbounds nuw i8, ptr %8, i64 8
  %56 = load i64, ptr %55, align 8, !tbaa !53
  %57 = call i32 @write_object_file_flags(ptr noundef %54, i64 noundef %56, i32 noundef 3, ptr noundef %1, ptr noundef null, i32 noundef 0)
  %.not25 = icmp eq i32 %57, 0
  br i1 %.not25, label %63, label %58

58:                                               ; preds = %52
  %59 = load i32, ptr @git_gettext_enabled, align 4, !tbaa !44
  %.not4.i26 = icmp eq i32 %59, 0
  br i1 %.not4.i26, label %_.exit28, label %60

60:                                               ; preds = %58
  %61 = call ptr @dcgettext(ptr noundef null, ptr noundef nonnull @.str.39, i32 noundef 5) #27
  br label %_.exit28

_.exit28:                                         ; preds = %58, %60
  %.0.i27 = phi ptr [ %61, %60 ], [ @.str.39, %58 ]
  %62 = call i32 (ptr, ...) @error(ptr noundef %.0.i27, ptr noundef %2) #27
  br label %63

63:                                               ; preds = %52, %_.exit28, %33
  %.1 = phi i32 [ -1, %_.exit28 ], [ 0, %52 ], [ 0, %33 ]
  call void @strbuf_release(ptr noundef nonnull %8) #27
  br label %72

64:                                               ; preds = %5
  %65 = load ptr, ptr @the_repository, align 8, !tbaa !9
  %66 = tail call i32 @repo_resolve_gitlink_ref(ptr noundef %65, ptr noundef %2, ptr noundef nonnull @.str.41, ptr noundef %1) #27
  br label %72

67:                                               ; preds = %5
  %68 = load i32, ptr @git_gettext_enabled, align 4, !tbaa !44
  %.not4.i29 = icmp eq i32 %68, 0
  br i1 %.not4.i29, label %_.exit31, label %69

69:                                               ; preds = %67
  %70 = tail call ptr @dcgettext(ptr noundef null, ptr noundef nonnull @.str.42, i32 noundef 5) #27
  br label %_.exit31

_.exit31:                                         ; preds = %67, %69
  %.0.i30 = phi ptr [ %70, %69 ], [ @.str.42, %67 ]
  %71 = tail call i32 (ptr, ...) @error(ptr noundef %.0.i30, ptr noundef %2) #27
  br label %72

72:                                               ; preds = %63, %17, %_.exit31, %64, %29, %_.exit, %15
  %.022 = phi i32 [ -1, %_.exit31 ], [ %66, %64 ], [ -1, %29 ], [ -1, %15 ], [ -1, %_.exit ], [ %.1, %63 ], [ 0, %17 ]
  call void @llvm.lifetime.end.p0(i64 24, ptr nonnull %8) #27
  ret i32 %.022
}